(lp0
(i__main__
TaskContainer
p1
(dp2
S'description'
p3
S'steve'
p4
sS'complete'
p5
I00
sS'due'
p6
Nsba(i__main__
TaskContainer
p7
(dp8
g6
Nsg5
I00
sg3
S'faye'
p9
sba(i__main__
TaskContainer
p10
(dp11
S'description'
p12
S'faye'
p13
sS'complete'
p14
I00
sS'due'
p15
Nsba(i__main__
TaskContainer
p16
(dp17
S'due'
p18
NsS'complete'
p19
I00
sS'description'
p20
S'faye 2 '
p21
sba.